; Function Attrs: mustprogress uwtable
define void @_ZN3gmx27ReferenceTemperatureManager22registerUpdateCallbackESt8functionIFvNS_8ArrayRefIKfEENS_35ReferenceTemperatureChangeAlgorithmEEE(ptr noundef nonnull align 8 dereferenceable(32) %0, ptr noundef %1) local_unnamed_addr #0 align 2 personality ptr @__gxx_personality_v0 {
  %3 = getelementptr inbounds nuw i8, ptr %0, i64 8
  %4 = load ptr, ptr %3, align 8, !tbaa !16
  %5 = getelementptr inbounds nuw i8, ptr %0, i64 16
  %6 = load ptr, ptr %5, align 8, !tbaa !21
  %.not.i = icmp eq ptr %4, %6
  br i1 %.not.i, label %18, label %7

7:                                                ; preds = %2
  %8 = getelementptr inbounds nuw i8, ptr %4, i64 24
  %9 = getelementptr inbounds nuw i8, ptr %1, i64 24
  tail call void @llvm.memset.p0.i64(ptr noundef nonnull align 8 dereferenceable(32) %4, i8 0, i64 24, i1 false)
  %10 = load ptr, ptr %9, align 8, !tbaa !22
  store ptr %10, ptr %8, align 8, !tbaa !22
  %11 = getelementptr inbounds nuw i8, ptr %1, i64 16
  %12 = load ptr, ptr %11, align 8, !tbaa !17
  %.not.i.i.not.i.i.i.i = icmp eq ptr %12, null
  br i1 %.not.i.i.not.i.i.i.i, label %_ZNSt16allocator_traitsISaISt8functionIFvN3gmx8ArrayRefIKfEENS1_35ReferenceTemperatureChangeAlgorithmEEEEE9constructIS7_JS7_EEEvRS8_PT_DpOT0_.exit.i, label %13

13:                                               ; preds = %7
  %14 = getelementptr inbounds nuw i8, ptr %4, i64 16
  tail call void @llvm.memcpy.p0.p0.i64(ptr noundef nonnull align 8 dereferenceable(32) %4, ptr noundef nonnull align 8 dereferenceable(32) %1, i64 16, i1 false), !tbaa.struct !24
  %15 = load ptr, ptr %11, align 8, !tbaa !17
  store ptr %15, ptr %14, align 8, !tbaa !17
  tail call void @llvm.memset.p0.i64(ptr noundef nonnull align 8 dereferenceable(16) %11, i8 0, i64 16, i1 false)
  br label %_ZNSt16allocator_traitsISaISt8functionIFvN3gmx8ArrayRefIKfEENS1_35ReferenceTemperatureChangeAlgorithmEEEEE9constructIS7_JS7_EEEvRS8_PT_DpOT0_.exit.i

_ZNSt16allocator_traitsISaISt8functionIFvN3gmx8ArrayRefIKfEENS1_35ReferenceTemperatureChangeAlgorithmEEEEE9constructIS7_JS7_EEEvRS8_PT_DpOT0_.exit.i: ; preds = %13, %7
  %16 = load ptr, ptr %3, align 8, !tbaa !16
  %17 = getelementptr inbounds nuw i8, ptr %16, i64 32
  store ptr %17, ptr %3, align 8, !tbaa !16
  br label %_ZNSt6vectorISt8functionIFvN3gmx8ArrayRefIKfEENS1_35ReferenceTemperatureChangeAlgorithmEEESaIS7_EE12emplace_backIJS7_EEERS7_DpOT_.exit

18:                                               ; preds = %2
  tail call void @_ZNSt6vectorISt8functionIFvN3gmx8ArrayRefIKfEENS1_35ReferenceTemperatureChangeAlgorithmEEESaIS7_EE17_M_realloc_insertIJS7_EEEvN9__gnu_cxx17__normal_iteratorIPS7_S9_EEDpOT_(ptr noundef nonnull align 8 dereferenceable(24) %0, ptr %4, ptr noundef nonnull align 8 dereferenceable(32) %1)
  br label %_ZNSt6vectorISt8functionIFvN3gmx8ArrayRefIKfEENS1_35ReferenceTemperatureChangeAlgorithmEEESaIS7_EE12emplace_backIJS7_EEERS7_DpOT_.exit

_ZNSt6vectorISt8functionIFvN3gmx8ArrayRefIKfEENS1_35ReferenceTemperatureChangeAlgorithmEEESaIS7_EE12emplace_backIJS7_EEERS7_DpOT_.exit: ; preds = %_ZNSt16allocator_traitsISaISt8functionIFvN3gmx8ArrayRefIKfEENS1_35ReferenceTemperatureChangeAlgorithmEEEEE9constructIS7_JS7_EEEvRS8_PT_DpOT0_.exit.i, %18
  ret void
}